; Function Attrs: null_pointer_is_valid sspstrong uwtable
define internal noundef zeroext i1 @fcwwn_from_literal(ptr noundef captures(none) %0, ptr noundef %1, i1 zeroext %2, ptr noundef writeonly captures(address_is_null) %3) #0 {
  %5 = tail call ptr @byte_array_from_literal(ptr noundef %1, ptr noundef null)
  %.not12 = icmp eq ptr %5, null
  br i1 %.not12, label %bytes_from_literal.exit, label %6

6:                                                ; preds = %4
  %7 = getelementptr inbounds nuw i8, ptr %0, i64 8
  %8 = load ptr, ptr %7, align 8
  %.not.i.i = icmp eq ptr %8, null
  br i1 %.not.i.i, label %10, label %9

9:                                                ; preds = %6
  tail call void @g_bytes_unref(ptr noundef nonnull %8)
  store ptr null, ptr %7, align 8
  br label %10

10:                                               ; preds = %6, %9
  %11 = tail call ptr @g_byte_array_free_to_bytes(ptr noundef nonnull %5)
  store ptr %11, ptr %7, align 8
  %12 = tail call i64 @g_bytes_get_size(ptr noundef %11)
  %13 = icmp ugt i64 %12, 8
  br i1 %13, label %14, label %16

14:                                               ; preds = %10
  %.not11 = icmp eq ptr %3, null
  br i1 %.not11, label %16, label %.sink.split

bytes_from_literal.exit:                          ; preds = %4
  %.not = icmp eq ptr %3, null
  br i1 %.not, label %16, label %.sink.split

.sink.split:                                      ; preds = %bytes_from_literal.exit, %14
  %.str.33.sink = phi ptr [ @.str.32, %14 ], [ @.str.33, %bytes_from_literal.exit ]
  %15 = tail call noalias ptr (ptr, ptr, ...) @wmem_strdup_printf(ptr noundef null, ptr noundef nonnull %.str.33.sink, ptr noundef %1)
  store ptr %15, ptr %3, align 8
  br label %16

16:                                               ; preds = %.sink.split, %bytes_from_literal.exit, %10, %14
  %.0 = phi i1 [ false, %14 ], [ true, %10 ], [ false, %bytes_from_literal.exit ], [ false, %.sink.split ]
  ret i1 %.0
}